target datalayout = "e-m:e-p270:32:32-p271:32:32-p272:64:64-i64:64-i128:128-f80:128-n8:16:32:64-S128"
target triple = "x86_64-pc-linux-gnu"

@.str.1 = private unnamed_addr constant [16 x i8] c"%s: malloc(%lu)\00", align 1
@__func__.evhttp_uridecode = private unnamed_addr constant [17 x i8] c"evhttp_uridecode\00", align 1

; Function Attrs: nounwind uwtable
define ptr @evhttp_uridecode(ptr noundef %0, i32 noundef %1, ptr noundef %2) #0 {
  %4 = alloca ptr, align 8
  %5 = alloca ptr, align 8
  %6 = alloca i32, align 4
  %7 = alloca ptr, align 8
  %8 = alloca ptr, align 8
  %9 = alloca i32, align 4
  %10 = alloca i32, align 4
  store ptr %0, ptr %5, align 8
  store i32 %1, ptr %6, align 4
  store ptr %2, ptr %7, align 8
  call void @llvm.lifetime.start.p0(i64 8, ptr %8) #11
  call void @llvm.lifetime.start.p0(i64 4, ptr %9) #11
  %11 = load ptr, ptr %5, align 8
  %12 = call i64 @strlen(ptr noundef %11) #12
  %13 = add i64 %12, 1
  %14 = call ptr @event_mm_malloc_(i64 noundef %13)
  store ptr %14, ptr %8, align 8
  %15 = icmp eq ptr %14, null
  br i1 %15, label %16, label %20

16:                                               ; preds = %3
  %17 = load ptr, ptr %5, align 8
  %18 = call i64 @strlen(ptr noundef %17) #12
  %19 = add i64 %18, 1
  call void (ptr, ...) @event_warn(ptr noundef @.str.1, ptr noundef @__func__.evhttp_uridecode, i64 noundef %19)
  store ptr null, ptr %4, align 8
  store i32 1, ptr %10, align 4
  br label %42

20:                                               ; preds = %3
  %21 = load ptr, ptr %5, align 8
  %22 = load ptr, ptr %5, align 8
  %23 = call i64 @strlen(ptr noundef %22) #12
  %24 = load ptr, ptr %8, align 8
  %25 = load i32, ptr %6, align 4
  %26 = icmp ne i32 %25, 0
  %27 = xor i1 %26, true
  %28 = xor i1 %27, true
  %29 = zext i1 %28 to i32
  %30 = call i32 @evhttp_decode_uri_internal(ptr noundef %21, i64 noundef %23, ptr noundef %24, i32 noundef %29)
  store i32 %30, ptr %9, align 4
  %31 = load ptr, ptr %7, align 8
  %32 = icmp ne ptr %31, null
  br i1 %32, label %33, label %40

33:                                               ; preds = %20
  br label %34

34:                                               ; preds = %33
  br label %35

35:                                               ; preds = %34
  br label %36

36:                                               ; preds = %35
  %37 = load i32, ptr %9, align 4
  %38 = sext i32 %37 to i64
  %39 = load ptr, ptr %7, align 8
  store i64 %38, ptr %39, align 8
  br label %40

40:                                               ; preds = %36, %20
  %41 = load ptr, ptr %8, align 8
  store ptr %41, ptr %4, align 8
  store i32 1, ptr %10, align 4
  br label %42

42:                                               ; preds = %40, %16
  call void @llvm.lifetime.end.p0(i64 4, ptr %9) #11
  call void @llvm.lifetime.end.p0(i64 8, ptr %8) #11
  %43 = load ptr, ptr %4, align 8
  ret ptr %43
}