; Function Attrs: nounwind uwtable
define ptr @evhttp_uridecode(ptr noundef readonly captures(none) %0, i32 noundef %1, ptr noundef writeonly captures(address_is_null) %2) local_unnamed_addr #0 {
  %4 = tail call i64 @strlen(ptr noundef nonnull dereferenceable(1) %0) #17
  %5 = add i64 %4, 1
  %6 = tail call ptr @event_mm_malloc_(i64 noundef %5) #18
  %7 = icmp eq ptr %6, null
  %8 = tail call i64 @strlen(ptr noundef nonnull dereferenceable(1) %0) #17
  br i1 %7, label %9, label %11

9:                                                ; preds = %3
  %10 = add i64 %8, 1
  tail call void (ptr, ...) @event_warn(ptr noundef nonnull @.str.1, ptr noundef nonnull @__func__.evhttp_uridecode, i64 noundef %10) #18
  br label %17

11:                                               ; preds = %3
  %12 = icmp ne i32 %1, 0
  %13 = zext i1 %12 to i32
  %14 = tail call i32 @evhttp_decode_uri_internal(ptr noundef nonnull %0, i64 noundef %8, ptr noundef nonnull %6, i32 noundef %13)
  %.not = icmp eq ptr %2, null
  br i1 %.not, label %17, label %15

15:                                               ; preds = %11
  %16 = sext i32 %14 to i64
  store i64 %16, ptr %2, align 8
  br label %17

17:                                               ; preds = %11, %15, %9
  ret ptr %6
}